; Function Attrs: mustprogress uwtable
define hidden void @_ZNK6Assimp7Blender9Structure7ConvertINS0_16CollectionObjectEEEvRT_RKNS0_12FileDatabaseE(ptr noundef nonnull align 8 dereferenceable(120) %0, ptr noundef nonnull align 8 dereferenceable(40) %1, ptr noundef nonnull align 8 dereferenceable(232) %2) local_unnamed_addr #0 align 2 personality ptr @__gxx_personality_v0 {
  %4 = alloca %"class.std::shared_ptr", align 8
  %5 = getelementptr inbounds nuw i8, ptr %1, i64 16
  %6 = tail call noundef zeroext i1 @_ZNK6Assimp7Blender9Structure12ReadFieldPtrILi2ESt10shared_ptrNS0_16CollectionObjectEEEbRT0_IT1_EPKcRKNS0_12FileDatabaseEb(ptr noundef nonnull align 8 dereferenceable(120) %0, ptr noundef nonnull align 8 dereferenceable(16) %5, ptr noundef nonnull @.str.15, ptr noundef nonnull align 8 dereferenceable(232) %2, i1 noundef zeroext false)
  call void @llvm.lifetime.start.p0(i64 16, ptr nonnull %4) #23
  call void @llvm.memset.p0.i64(ptr noundef nonnull align 8 dereferenceable(16) %4, i8 0, i64 16, i1 false)
  %7 = invoke noundef zeroext i1 @_ZNK6Assimp7Blender9Structure12ReadFieldPtrILi0ESt10shared_ptrNS0_6ObjectEEEbRT0_IT1_EPKcRKNS0_12FileDatabaseEb(ptr noundef nonnull align 8 dereferenceable(120) %0, ptr noundef nonnull align 8 dereferenceable(16) %4, ptr noundef nonnull @.str.16, ptr noundef nonnull align 8 dereferenceable(232) %2, i1 noundef zeroext false)
          to label %8 unwind label %49

8:                                                ; preds = %3
  %9 = load ptr, ptr %4, align 8
  %10 = getelementptr inbounds nuw i8, ptr %1, i64 32
  store ptr %9, ptr %10, align 8
  %11 = getelementptr inbounds nuw i8, ptr %4, i64 8
  %12 = load ptr, ptr %11, align 8
  %.not.i.i = icmp eq ptr %12, null
  br i1 %.not.i.i, label %_ZNSt12__shared_ptrIN6Assimp7Blender6ObjectELN9__gnu_cxx12_Lock_policyE2EED2Ev.exit, label %13

13:                                               ; preds = %8
  %14 = getelementptr inbounds nuw i8, ptr %12, i64 8
  %15 = load atomic i64, ptr %14 acquire, align 8
  %16 = icmp eq i64 %15, 4294967297
  %17 = trunc i64 %15 to i32
  br i1 %16, label %18, label %26

18:                                               ; preds = %13
  store i32 0, ptr %14, align 8
  %19 = getelementptr inbounds nuw i8, ptr %12, i64 12
  store i32 0, ptr %19, align 4
  %20 = load ptr, ptr %12, align 8
  %21 = getelementptr inbounds nuw i8, ptr %20, i64 16
  %22 = load ptr, ptr %21, align 8
  call void %22(ptr noundef nonnull align 8 dereferenceable(16) %12) #23
  %23 = load ptr, ptr %12, align 8
  %24 = getelementptr inbounds nuw i8, ptr %23, i64 24
  %25 = load ptr, ptr %24, align 8
  call void %25(ptr noundef nonnull align 8 dereferenceable(16) %12) #23
  br label %_ZNSt12__shared_ptrIN6Assimp7Blender6ObjectELN9__gnu_cxx12_Lock_policyE2EED2Ev.exit

26:                                               ; preds = %13
  %27 = load i8, ptr @__libc_single_threaded, align 1
  %.not.i.i.i = icmp eq i8 %27, 0
  br i1 %.not.i.i.i, label %30, label %28

28:                                               ; preds = %26
  %29 = add nsw i32 %17, -1
  store i32 %29, ptr %14, align 4
  br label %_ZN9__gnu_cxx27__exchange_and_add_dispatchEPii.exit.i.i.i

30:                                               ; preds = %26
  %31 = atomicrmw volatile add ptr %14, i32 -1 acq_rel, align 4
  br label %_ZN9__gnu_cxx27__exchange_and_add_dispatchEPii.exit.i.i.i

_ZN9__gnu_cxx27__exchange_and_add_dispatchEPii.exit.i.i.i: ; preds = %30, %28
  %.0.i.i.i.i = phi i32 [ %17, %28 ], [ %31, %30 ]
  %32 = icmp eq i32 %.0.i.i.i.i, 1
  br i1 %32, label %33, label %_ZNSt12__shared_ptrIN6Assimp7Blender6ObjectELN9__gnu_cxx12_Lock_policyE2EED2Ev.exit, !prof !3

33:                                               ; preds = %_ZN9__gnu_cxx27__exchange_and_add_dispatchEPii.exit.i.i.i
  call void @_ZNSt16_Sp_counted_baseILN9__gnu_cxx12_Lock_policyE2EE24_M_release_last_use_coldEv(ptr noundef nonnull align 8 dereferenceable(16) %12) #23
  br label %_ZNSt12__shared_ptrIN6Assimp7Blender6ObjectELN9__gnu_cxx12_Lock_policyE2EED2Ev.exit

_ZNSt12__shared_ptrIN6Assimp7Blender6ObjectELN9__gnu_cxx12_Lock_policyE2EED2Ev.exit: ; preds = %8, %18, %_ZN9__gnu_cxx27__exchange_and_add_dispatchEPii.exit.i.i.i, %33
  call void @llvm.lifetime.end.p0(i64 16, ptr nonnull %4) #23
  %34 = getelementptr inbounds nuw i8, ptr %2, i64 128
  %35 = load ptr, ptr %34, align 8
  %36 = getelementptr inbounds nuw i8, ptr %0, i64 104
  %37 = load i64, ptr %36, align 8
  %38 = getelementptr inbounds nuw i8, ptr %35, i64 24
  %39 = load ptr, ptr %38, align 8
  %40 = getelementptr inbounds i8, ptr %39, i64 %37
  store ptr %40, ptr %38, align 8
  %41 = getelementptr inbounds nuw i8, ptr %35, i64 40
  %42 = load ptr, ptr %41, align 8
  %43 = icmp ugt ptr %40, %42
  br i1 %43, label %44, label %_ZN6Assimp12StreamReaderILb1ELb1EE6IncPtrEl.exit

44:                                               ; preds = %_ZNSt12__shared_ptrIN6Assimp7Blender6ObjectELN9__gnu_cxx12_Lock_policyE2EED2Ev.exit
  %45 = call ptr @__cxa_allocate_exception(i64 16) #23
  invoke void @_ZN17DeadlyImportErrorC2EPKc(ptr noundef nonnull align 8 dereferenceable(16) %45, ptr noundef nonnull @.str.307)
          to label %46 unwind label %47

46:                                               ; preds = %44
  call void @__cxa_throw(ptr nonnull %45, ptr nonnull @_ZTI17DeadlyImportError, ptr nonnull @_ZNSt13runtime_errorD2Ev) #24
  unreachable

common.resume:                                    ; preds = %49, %47
  %common.resume.op = phi { ptr, i32 } [ %48, %47 ], [ %50, %49 ]
  resume { ptr, i32 } %common.resume.op

47:                                               ; preds = %44
  %48 = landingpad { ptr, i32 }
          cleanup
  call void @__cxa_free_exception(ptr nonnull %45) #23
  br label %common.resume

_ZN6Assimp12StreamReaderILb1ELb1EE6IncPtrEl.exit: ; preds = %_ZNSt12__shared_ptrIN6Assimp7Blender6ObjectELN9__gnu_cxx12_Lock_policyE2EED2Ev.exit
  ret void

49:                                               ; preds = %3
  %50 = landingpad { ptr, i32 }
          cleanup
  call void @_ZNSt12__shared_ptrIN6Assimp7Blender6ObjectELN9__gnu_cxx12_Lock_policyE2EED2Ev(ptr noundef nonnull align 8 dereferenceable(16) %4) #23
  call void @llvm.lifetime.end.p0(i64 16, ptr nonnull %4) #23
  br label %common.resume
}